; Function Attrs: mustprogress uwtable
define dso_local void @_ZN13StatusPrinter7WarningEPKcz(ptr nonnull readnone align 8 captures(none) %0, ptr noundef %1, ...) unnamed_addr #0 align 2 {
  %3 = alloca [1 x %struct.__va_list_tag], align 16
  call void @llvm.lifetime.start.p0(i64 24, ptr nonnull %3) #23
  call void @llvm.va_start.p0(ptr nonnull %3)
  call void @_Z7WarningPKcP13__va_list_tag(ptr noundef %1, ptr noundef nonnull %3)
  call void @llvm.va_end.p0(ptr nonnull %3)
  call void @llvm.lifetime.end.p0(i64 24, ptr nonnull %3) #23
  ret void
}